#include <math.h>
#include <stdio.h>
#include <stdlib.h>
#include <string.h>

int main()
{
  int n,i,s;
  s=0;
  i=0;
  scanf("%d",&n);
  for(i=1;i<=n;i++)
  {
	 if(i%7==0)
	     continue;
	 else if(i%10==7)
		 continue;
         else if(i/10==7)
		 continue;
	 else
		 s=s+i*i;
}
  printf("%d\n",s);
  return 0;
}